target datalayout = "e-m:e-p270:32:32-p271:32:32-p272:64:64-i64:64-i128:128-f80:128-n8:16:32:64-S128"
target triple = "x86_64-pc-linux-gnu"

%struct.lua_State = type { %struct.GCRef, i8, i8, i8, i8, %struct.MRef, %struct.GCRef, ptr, ptr, %struct.MRef, %struct.MRef, %struct.GCRef, %struct.GCRef, ptr, i32 }
%struct.MRef = type { i64 }
%struct.GCRef = type { i64 }
%union.TValue = type { i64 }
%struct.SBufExt = type { ptr, ptr, ptr, %struct.MRef, %union.anon.2, ptr, %struct.GCRef, %struct.GCRef, i32 }
%union.anon.2 = type { %struct.GCRef }
%struct.GCstr = type { %struct.GCRef, i8, i8, i8, i8, i32, i32, i32 }
%struct.GCudata = type { %struct.GCRef, i8, i8, i8, i8, %struct.GCRef, i32, %struct.GCRef, i32 }
%struct.global_State = type { ptr, ptr, %struct.GCState, %struct.GCstr, i8, i8, i8, i8, %struct.StrInternState, i32, %struct.GCRef, %struct.SBuf, %union.TValue, %union.TValue, %struct.Node, %union.TValue, %struct.GCupval, i32, i32, ptr, ptr, ptr, i32, i32, %struct.GCRef, %struct.MRef, %struct.MRef, %struct.PRNGState, [39 x %struct.GCRef] }
%struct.GCState = type { i64, i64, i8, i8, i8, i8, i32, %struct.GCRef, %struct.MRef, %struct.GCRef, %struct.GCRef, %struct.GCRef, %struct.GCRef, i64, i64, i32, i32, %struct.MRef }
%struct.StrInternState = type { ptr, i32, i32, i32, i8, i8, i8, i8, i64 }
%struct.SBuf = type { ptr, ptr, ptr, %struct.MRef }
%struct.Node = type { %union.TValue, %union.TValue, %struct.MRef }
%struct.GCupval = type { %struct.GCRef, i8, i8, i8, i8, %union.anon, %struct.MRef, i32 }
%union.anon = type { %struct.anon.1 }
%struct.anon.1 = type { %struct.GCRef, %struct.GCRef }
%struct.PRNGState = type { [4 x i64] }

@.str.2 = private unnamed_addr constant [7 x i8] c"buffer\00", align 1
@.str.5 = private unnamed_addr constant [24 x i8] c"store to dead GC object\00", align 1

; Function Attrs: alwaysinline nounwind uwtable
define internal void @checklivetv(ptr noundef %0, ptr noundef %1, ptr noundef %2) #3 {
  %4 = alloca ptr, align 8
  %5 = alloca ptr, align 8
  %6 = alloca ptr, align 8
  store ptr %0, ptr %4, align 8, !tbaa !4
  store ptr %1, ptr %5, align 8, !tbaa !38
  store ptr %2, ptr %6, align 8, !tbaa !31
  ret void
}

; Function Attrs: alwaysinline nounwind uwtable
define internal void @setgcVraw(ptr noundef %0, ptr noundef %1, i32 noundef %2) #3 {
  %4 = alloca ptr, align 8
  %5 = alloca ptr, align 8
  %6 = alloca i32, align 4
  store ptr %0, ptr %4, align 8, !tbaa !38
  store ptr %1, ptr %5, align 8, !tbaa !34
  store i32 %2, ptr %6, align 4, !tbaa !19
  %7 = load ptr, ptr %5, align 8, !tbaa !34
  %8 = ptrtoint ptr %7 to i64
  %9 = load i32, ptr %6, align 4, !tbaa !19
  %10 = zext i32 %9 to i64
  %11 = shl i64 %10, 47
  %12 = or i64 %8, %11
  %13 = load ptr, ptr %4, align 8, !tbaa !38
  %14 = getelementptr inbounds nuw %struct.GCRef, ptr %13, i32 0, i32 0
  store i64 %12, ptr %14, align 8, !tbaa !26
  ret void
}

; Function Attrs: alwaysinline nounwind uwtable
define internal void @setgcV(ptr noundef %0, ptr noundef %1, ptr noundef %2, i32 noundef %3) #3 {
  %5 = alloca ptr, align 8
  %6 = alloca ptr, align 8
  %7 = alloca ptr, align 8
  %8 = alloca i32, align 4
  store ptr %0, ptr %5, align 8, !tbaa !4
  store ptr %1, ptr %6, align 8, !tbaa !38
  store ptr %2, ptr %7, align 8, !tbaa !34
  store i32 %3, ptr %8, align 4, !tbaa !19
  %9 = load ptr, ptr %6, align 8, !tbaa !38
  %10 = load ptr, ptr %7, align 8, !tbaa !34
  %11 = load i32, ptr %8, align 4, !tbaa !19
  call void @setgcVraw(ptr noundef %9, ptr noundef %10, i32 noundef %11)
  %12 = load ptr, ptr %5, align 8, !tbaa !4
  %13 = load ptr, ptr %6, align 8, !tbaa !38
  call void @checklivetv(ptr noundef %12, ptr noundef %13, ptr noundef @.str.5)
  ret void
}

; Function Attrs: alwaysinline nounwind uwtable
define internal void @setstrV(ptr noundef %0, ptr noundef %1, ptr noundef %2) #3 {
  %4 = alloca ptr, align 8
  %5 = alloca ptr, align 8
  %6 = alloca ptr, align 8
  store ptr %0, ptr %4, align 8, !tbaa !4
  store ptr %1, ptr %5, align 8, !tbaa !38
  store ptr %2, ptr %6, align 8, !tbaa !29
  %7 = load ptr, ptr %4, align 8, !tbaa !4
  %8 = load ptr, ptr %5, align 8, !tbaa !38
  %9 = load ptr, ptr %6, align 8, !tbaa !29
  call void @setgcV(ptr noundef %7, ptr noundef %8, ptr noundef %9, i32 noundef -5)
  ret void
}

; Function Attrs: nounwind uwtable
define internal ptr @buffer_tobuf(ptr noundef %0) #0 {
  %2 = alloca ptr, align 8
  store ptr %0, ptr %2, align 8, !tbaa !4
  %3 = load ptr, ptr %2, align 8, !tbaa !4
  %4 = getelementptr inbounds nuw %struct.lua_State, ptr %3, i32 0, i32 7
  %5 = load ptr, ptr %4, align 8, !tbaa !11
  %6 = load ptr, ptr %2, align 8, !tbaa !4
  %7 = getelementptr inbounds nuw %struct.lua_State, ptr %6, i32 0, i32 8
  %8 = load ptr, ptr %7, align 8, !tbaa !18
  %9 = icmp ult ptr %5, %8
  br i1 %9, label %10, label %30

10:                                               ; preds = %1
  %11 = load ptr, ptr %2, align 8, !tbaa !4
  %12 = getelementptr inbounds nuw %struct.lua_State, ptr %11, i32 0, i32 7
  %13 = load ptr, ptr %12, align 8, !tbaa !11
  %14 = load i64, ptr %13, align 8, !tbaa !26
  %15 = ashr i64 %14, 47
  %16 = trunc i64 %15 to i32
  %17 = icmp eq i32 %16, -13
  br i1 %17, label %18, label %30

18:                                               ; preds = %10
  %19 = load ptr, ptr %2, align 8, !tbaa !4
  %20 = getelementptr inbounds nuw %struct.lua_State, ptr %19, i32 0, i32 7
  %21 = load ptr, ptr %20, align 8, !tbaa !11
  %22 = getelementptr inbounds nuw %struct.GCRef, ptr %21, i32 0, i32 0
  %23 = load i64, ptr %22, align 8, !tbaa !26
  %24 = and i64 %23, 140737488355327
  %25 = inttoptr i64 %24 to ptr
  %26 = getelementptr inbounds nuw %struct.GCudata, ptr %25, i32 0, i32 3
  %27 = load i8, ptr %26, align 2, !tbaa !26
  %28 = zext i8 %27 to i32
  %29 = icmp eq i32 %28, 3
  br i1 %29, label %32, label %30

30:                                               ; preds = %18, %10, %1
  %31 = load ptr, ptr %2, align 8, !tbaa !4
  call void @lj_err_argtype(ptr noundef %31, i32 noundef 1, ptr noundef @.str.2) #9
  unreachable

32:                                               ; preds = %18
  %33 = load ptr, ptr %2, align 8, !tbaa !4
  %34 = getelementptr inbounds nuw %struct.lua_State, ptr %33, i32 0, i32 7
  %35 = load ptr, ptr %34, align 8, !tbaa !11
  %36 = getelementptr inbounds nuw %struct.GCRef, ptr %35, i32 0, i32 0
  %37 = load i64, ptr %36, align 8, !tbaa !26
  %38 = and i64 %37, 140737488355327
  %39 = inttoptr i64 %38 to ptr
  %40 = getelementptr inbounds %struct.GCudata, ptr %39, i64 1
  ret ptr %40
}

; Function Attrs: nounwind uwtable
define internal i32 @lj_cf_buffer_method_get(ptr noundef %0) #0 {
  %2 = alloca ptr, align 8
  %3 = alloca ptr, align 8
  %4 = alloca i64, align 8
  %5 = alloca i64, align 8
  %6 = alloca ptr, align 8
  %7 = alloca i32, align 4
  %8 = alloca i32, align 4
  store ptr %0, ptr %2, align 8, !tbaa !4
  call void @llvm.lifetime.start.p0(i64 8, ptr %3) #8
  %9 = load ptr, ptr %2, align 8, !tbaa !4
  %10 = call ptr @buffer_tobuf(ptr noundef %9)
  store ptr %10, ptr %3, align 8, !tbaa !9
  call void @llvm.lifetime.start.p0(i64 8, ptr %4) #8
  call void @llvm.lifetime.start.p0(i64 8, ptr %5) #8
  %11 = load ptr, ptr %2, align 8, !tbaa !4
  %12 = getelementptr inbounds nuw %struct.lua_State, ptr %11, i32 0, i32 8
  %13 = load ptr, ptr %12, align 8, !tbaa !18
  %14 = load ptr, ptr %2, align 8, !tbaa !4
  %15 = getelementptr inbounds nuw %struct.lua_State, ptr %14, i32 0, i32 7
  %16 = load ptr, ptr %15, align 8, !tbaa !11
  %17 = ptrtoint ptr %13 to i64
  %18 = ptrtoint ptr %16 to i64
  %19 = sub i64 %17, %18
  %20 = sdiv exact i64 %19, 8
  store i64 %20, ptr %5, align 8, !tbaa !37
  %21 = load i64, ptr %5, align 8, !tbaa !37
  %22 = icmp eq i64 %21, 1
  br i1 %22, label %23, label %30

23:                                               ; preds = %1
  %24 = load i64, ptr %5, align 8, !tbaa !37
  %25 = add nsw i64 %24, 1
  store i64 %25, ptr %5, align 8, !tbaa !37
  %26 = load ptr, ptr %2, align 8, !tbaa !4
  %27 = getelementptr inbounds nuw %struct.lua_State, ptr %26, i32 0, i32 8
  %28 = load ptr, ptr %27, align 8, !tbaa !18
  %29 = getelementptr inbounds nuw %union.TValue, ptr %28, i32 1
  store ptr %29, ptr %27, align 8, !tbaa !18
  store i64 -1, ptr %28, align 8, !tbaa !26
  br label %30

30:                                               ; preds = %23, %1
  store i64 1, ptr %4, align 8, !tbaa !37
  br label %31

31:                                               ; preds = %84, %30
  %32 = load i64, ptr %4, align 8, !tbaa !37
  %33 = load i64, ptr %5, align 8, !tbaa !37
  %34 = icmp slt i64 %32, %33
  br i1 %34, label %35, label %87

35:                                               ; preds = %31
  call void @llvm.lifetime.start.p0(i64 8, ptr %6) #8
  %36 = load ptr, ptr %2, align 8, !tbaa !4
  %37 = getelementptr inbounds nuw %struct.lua_State, ptr %36, i32 0, i32 7
  %38 = load ptr, ptr %37, align 8, !tbaa !11
  %39 = load i64, ptr %4, align 8, !tbaa !37
  %40 = getelementptr inbounds %union.TValue, ptr %38, i64 %39
  store ptr %40, ptr %6, align 8, !tbaa !38
  call void @llvm.lifetime.start.p0(i64 4, ptr %7) #8
  %41 = load ptr, ptr %6, align 8, !tbaa !38
  %42 = load i64, ptr %41, align 8, !tbaa !26
  %43 = icmp eq i64 %42, -1
  br i1 %43, label %44, label %45

44:                                               ; preds = %35
  br label %51

45:                                               ; preds = %35
  %46 = load ptr, ptr %2, align 8, !tbaa !4
  %47 = load i64, ptr %4, align 8, !tbaa !37
  %48 = add nsw i64 %47, 1
  %49 = trunc i64 %48 to i32
  %50 = call i32 @lj_lib_checkintrange(ptr noundef %46, i32 noundef %49, i32 noundef 0, i32 noundef 2147483392)
  br label %51

51:                                               ; preds = %45, %44
  %52 = phi i32 [ 2147483392, %44 ], [ %50, %45 ]
  store i32 %52, ptr %7, align 4, !tbaa !19
  call void @llvm.lifetime.start.p0(i64 4, ptr %8) #8
  %53 = load ptr, ptr %3, align 8, !tbaa !9
  %54 = getelementptr inbounds nuw %struct.SBufExt, ptr %53, i32 0, i32 0
  %55 = load ptr, ptr %54, align 8, !tbaa !20
  %56 = load ptr, ptr %3, align 8, !tbaa !9
  %57 = getelementptr inbounds nuw %struct.SBufExt, ptr %56, i32 0, i32 5
  %58 = load ptr, ptr %57, align 8, !tbaa !23
  %59 = ptrtoint ptr %55 to i64
  %60 = ptrtoint ptr %58 to i64
  %61 = sub i64 %59, %60
  %62 = trunc i64 %61 to i32
  store i32 %62, ptr %8, align 4, !tbaa !19
  %63 = load i32, ptr %7, align 4, !tbaa !19
  %64 = load i32, ptr %8, align 4, !tbaa !19
  %65 = icmp ugt i32 %63, %64
  br i1 %65, label %66, label %68

66:                                               ; preds = %51
  %67 = load i32, ptr %8, align 4, !tbaa !19
  store i32 %67, ptr %7, align 4, !tbaa !19
  br label %68

68:                                               ; preds = %66, %51
  %69 = load ptr, ptr %2, align 8, !tbaa !4
  %70 = load ptr, ptr %6, align 8, !tbaa !38
  %71 = load ptr, ptr %2, align 8, !tbaa !4
  %72 = load ptr, ptr %3, align 8, !tbaa !9
  %73 = getelementptr inbounds nuw %struct.SBufExt, ptr %72, i32 0, i32 5
  %74 = load ptr, ptr %73, align 8, !tbaa !23
  %75 = load i32, ptr %7, align 4, !tbaa !19
  %76 = zext i32 %75 to i64
  %77 = call ptr @lj_str_new(ptr noundef %71, ptr noundef %74, i64 noundef %76)
  call void @setstrV(ptr noundef %69, ptr noundef %70, ptr noundef %77)
  %78 = load i32, ptr %7, align 4, !tbaa !19
  %79 = load ptr, ptr %3, align 8, !tbaa !9
  %80 = getelementptr inbounds nuw %struct.SBufExt, ptr %79, i32 0, i32 5
  %81 = load ptr, ptr %80, align 8, !tbaa !23
  %82 = zext i32 %78 to i64
  %83 = getelementptr inbounds nuw i8, ptr %81, i64 %82
  store ptr %83, ptr %80, align 8, !tbaa !23
  call void @llvm.lifetime.end.p0(i64 4, ptr %8) #8
  call void @llvm.lifetime.end.p0(i64 4, ptr %7) #8
  call void @llvm.lifetime.end.p0(i64 8, ptr %6) #8
  br label %84

84:                                               ; preds = %68
  %85 = load i64, ptr %4, align 8, !tbaa !37
  %86 = add nsw i64 %85, 1
  store i64 %86, ptr %4, align 8, !tbaa !37
  br label %31, !llvm.loop !51

87:                                               ; preds = %31
  %88 = load ptr, ptr %3, align 8, !tbaa !9
  %89 = getelementptr inbounds nuw %struct.SBufExt, ptr %88, i32 0, i32 5
  %90 = load ptr, ptr %89, align 8, !tbaa !23
  %91 = load ptr, ptr %3, align 8, !tbaa !9
  %92 = getelementptr inbounds nuw %struct.SBufExt, ptr %91, i32 0, i32 0
  %93 = load ptr, ptr %92, align 8, !tbaa !20
  %94 = icmp eq ptr %90, %93
  br i1 %94, label %95, label %110

95:                                               ; preds = %87
  %96 = load ptr, ptr %3, align 8, !tbaa !9
  %97 = getelementptr inbounds nuw %struct.SBufExt, ptr %96, i32 0, i32 3
  %98 = getelementptr inbounds nuw %struct.MRef, ptr %97, i32 0, i32 0
  %99 = load i64, ptr %98, align 8, !tbaa !24
  %100 = and i64 %99, 2
  %101 = icmp ne i64 %100, 0
  br i1 %101, label %110, label %102

102:                                              ; preds = %95
  %103 = load ptr, ptr %3, align 8, !tbaa !9
  %104 = getelementptr inbounds nuw %struct.SBufExt, ptr %103, i32 0, i32 2
  %105 = load ptr, ptr %104, align 8, !tbaa !25
  %106 = load ptr, ptr %3, align 8, !tbaa !9
  %107 = getelementptr inbounds nuw %struct.SBufExt, ptr %106, i32 0, i32 0
  store ptr %105, ptr %107, align 8, !tbaa !20
  %108 = load ptr, ptr %3, align 8, !tbaa !9
  %109 = getelementptr inbounds nuw %struct.SBufExt, ptr %108, i32 0, i32 5
  store ptr %105, ptr %109, align 8, !tbaa !23
  br label %110

110:                                              ; preds = %102, %95, %87
  %111 = load ptr, ptr %2, align 8, !tbaa !4
  %112 = getelementptr inbounds nuw %struct.lua_State, ptr %111, i32 0, i32 5
  %113 = getelementptr inbounds nuw %struct.MRef, ptr %112, i32 0, i32 0
  %114 = load i64, ptr %113, align 8, !tbaa !36
  %115 = inttoptr i64 %114 to ptr
  %116 = getelementptr inbounds nuw %struct.global_State, ptr %115, i32 0, i32 2
  %117 = getelementptr inbounds nuw %struct.GCState, ptr %116, i32 0, i32 0
  %118 = load i64, ptr %117, align 8, !tbaa !41
  %119 = load ptr, ptr %2, align 8, !tbaa !4
  %120 = getelementptr inbounds nuw %struct.lua_State, ptr %119, i32 0, i32 5
  %121 = getelementptr inbounds nuw %struct.MRef, ptr %120, i32 0, i32 0
  %122 = load i64, ptr %121, align 8, !tbaa !36
  %123 = inttoptr i64 %122 to ptr
  %124 = getelementptr inbounds nuw %struct.global_State, ptr %123, i32 0, i32 2
  %125 = getelementptr inbounds nuw %struct.GCState, ptr %124, i32 0, i32 1
  %126 = load i64, ptr %125, align 8, !tbaa !50
  %127 = icmp uge i64 %118, %126
  %128 = xor i1 %127, true
  %129 = xor i1 %128, true
  %130 = zext i1 %129 to i32
  %131 = sext i32 %130 to i64
  %132 = call i64 @llvm.expect.i64(i64 %131, i64 0)
  %133 = icmp ne i64 %132, 0
  br i1 %133, label %134, label %137

134:                                              ; preds = %110
  %135 = load ptr, ptr %2, align 8, !tbaa !4
  %136 = call i32 @lj_gc_step(ptr noundef %135)
  br label %137

137:                                              ; preds = %134, %110
  %138 = load i64, ptr %5, align 8, !tbaa !37
  %139 = sub nsw i64 %138, 1
  %140 = trunc i64 %139 to i32
  call void @llvm.lifetime.end.p0(i64 8, ptr %5) #8
  call void @llvm.lifetime.end.p0(i64 8, ptr %4) #8
  call void @llvm.lifetime.end.p0(i64 8, ptr %3) #8
  ret i32 %140
}