; Function Attrs: nounwind uwtable
define internal i32 @lj_cf_buffer_method_get(ptr noundef %0) #0 {
  %2 = getelementptr inbounds nuw i8, ptr %0, i64 32
  %3 = load ptr, ptr %2, align 8, !tbaa !4
  %4 = getelementptr inbounds nuw i8, ptr %0, i64 40
  %5 = load ptr, ptr %4, align 8, !tbaa !14
  %6 = icmp ult ptr %3, %5
  br i1 %6, label %7, label %16

7:                                                ; preds = %1
  %8 = load i64, ptr %3, align 8, !tbaa !15
  %.mask.i = and i64 %8, -140737488355328
  %9 = icmp eq i64 %.mask.i, -1829587348619264
  br i1 %9, label %10, label %16

10:                                               ; preds = %7
  %11 = and i64 %8, 140737488355327
  %12 = inttoptr i64 %11 to ptr
  %13 = getelementptr inbounds nuw i8, ptr %12, i64 10
  %14 = load i8, ptr %13, align 2, !tbaa !15
  %15 = icmp eq i8 %14, 3
  br i1 %15, label %buffer_tobuf.exit, label %16

16:                                               ; preds = %10, %7, %1
  tail call void @lj_err_argtype(ptr noundef nonnull %0, i32 noundef 1, ptr noundef nonnull @.str.2) #7
  unreachable

buffer_tobuf.exit:                                ; preds = %10
  %17 = getelementptr inbounds nuw i8, ptr %12, i64 48
  %18 = ptrtoint ptr %5 to i64
  %19 = ptrtoint ptr %3 to i64
  %20 = sub i64 %18, %19
  %21 = ashr exact i64 %20, 3
  %22 = icmp eq i64 %20, 8
  br i1 %22, label %.thread, label %24

.thread:                                          ; preds = %buffer_tobuf.exit
  %23 = getelementptr inbounds nuw i8, ptr %5, i64 8
  store ptr %23, ptr %4, align 8, !tbaa !14
  store i64 -1, ptr %5, align 8, !tbaa !15
  br label %.lr.ph

24:                                               ; preds = %buffer_tobuf.exit
  %25 = icmp sgt i64 %21, 1
  br i1 %25, label %.lr.ph, label %.._crit_edge_crit_edge

.._crit_edge_crit_edge:                           ; preds = %24
  %.phi.trans.insert = getelementptr inbounds nuw i8, ptr %12, i64 88
  %.pre = load ptr, ptr %.phi.trans.insert, align 8, !tbaa !35
  br label %._crit_edge

.lr.ph:                                           ; preds = %.thread, %24
  %.03644 = phi i64 [ 2, %.thread ], [ %21, %24 ]
  %26 = getelementptr inbounds nuw i8, ptr %12, i64 88
  br label %27

27:                                               ; preds = %.lr.ph, %36
  %.041 = phi i64 [ 1, %.lr.ph ], [ %50, %36 ]
  %28 = load ptr, ptr %2, align 8, !tbaa !4
  %29 = getelementptr inbounds nuw %union.TValue, ptr %28, i64 %.041
  %30 = load i64, ptr %29, align 8, !tbaa !15
  %31 = icmp eq i64 %30, -1
  br i1 %31, label %36, label %32

32:                                               ; preds = %27
  %33 = trunc i64 %.041 to i32
  %34 = add i32 %33, 1
  %35 = tail call i32 @lj_lib_checkintrange(ptr noundef nonnull %0, i32 noundef %34, i32 noundef 0, i32 noundef 2147483392) #6
  br label %36

36:                                               ; preds = %27, %32
  %37 = phi i32 [ %35, %32 ], [ 2147483392, %27 ]
  %38 = load ptr, ptr %17, align 8, !tbaa !34
  %39 = load ptr, ptr %26, align 8, !tbaa !35
  %40 = ptrtoint ptr %38 to i64
  %41 = ptrtoint ptr %39 to i64
  %42 = sub i64 %40, %41
  %43 = trunc i64 %42 to i32
  %spec.select = tail call i32 @llvm.umin.i32(i32 %37, i32 %43)
  %44 = zext i32 %spec.select to i64
  %45 = tail call ptr @lj_str_new(ptr noundef nonnull %0, ptr noundef %39, i64 noundef %44) #6
  %46 = ptrtoint ptr %45 to i64
  %47 = or i64 %46, -703687441776640
  store i64 %47, ptr %29, align 8, !tbaa !15
  %48 = load ptr, ptr %26, align 8, !tbaa !35
  %49 = getelementptr inbounds nuw i8, ptr %48, i64 %44
  store ptr %49, ptr %26, align 8, !tbaa !35
  %50 = add nuw nsw i64 %.041, 1
  %exitcond.not = icmp eq i64 %50, %.03644
  br i1 %exitcond.not, label %._crit_edge.loopexit, label %27, !llvm.loop !53

._crit_edge.loopexit:                             ; preds = %36
  %51 = getelementptr inbounds nuw i8, ptr %48, i64 %44
  br label %._crit_edge

._crit_edge:                                      ; preds = %._crit_edge.loopexit, %.._crit_edge_crit_edge
  %.03643 = phi i64 [ %21, %.._crit_edge_crit_edge ], [ %.03644, %._crit_edge.loopexit ]
  %52 = phi ptr [ %.pre, %.._crit_edge_crit_edge ], [ %51, %._crit_edge.loopexit ]
  %53 = getelementptr inbounds nuw i8, ptr %12, i64 88
  %54 = load ptr, ptr %17, align 8, !tbaa !34
  %55 = icmp eq ptr %52, %54
  br i1 %55, label %56, label %63

56:                                               ; preds = %._crit_edge
  %57 = getelementptr inbounds nuw i8, ptr %12, i64 72
  %58 = load i64, ptr %57, align 8, !tbaa !16
  %59 = and i64 %58, 2
  %.not = icmp eq i64 %59, 0
  br i1 %.not, label %60, label %63

60:                                               ; preds = %56
  %61 = getelementptr inbounds nuw i8, ptr %12, i64 64
  %62 = load ptr, ptr %61, align 8, !tbaa !20
  store ptr %62, ptr %17, align 8, !tbaa !34
  store ptr %62, ptr %53, align 8, !tbaa !35
  br label %63

63:                                               ; preds = %60, %56, %._crit_edge
  %64 = getelementptr inbounds nuw i8, ptr %0, i64 16
  %65 = load i64, ptr %64, align 8, !tbaa !19
  %66 = inttoptr i64 %65 to ptr
  %67 = getelementptr inbounds nuw i8, ptr %66, i64 16
  %68 = load i64, ptr %67, align 8, !tbaa !22
  %69 = getelementptr inbounds nuw i8, ptr %66, i64 24
  %70 = load i64, ptr %69, align 8, !tbaa !51
  %.not40 = icmp ult i64 %68, %70
  br i1 %.not40, label %73, label %71, !prof !52

71:                                               ; preds = %63
  %72 = tail call i32 @lj_gc_step(ptr noundef nonnull %0) #6
  br label %73

73:                                               ; preds = %71, %63
  %74 = trunc i64 %.03643 to i32
  %75 = add i32 %74, -1
  ret i32 %75
}